target datalayout = "e-m:e-p270:32:32-p271:32:32-p272:64:64-i64:64-i128:128-f80:128-n8:16:32:64-S128"
target triple = "x86_64-pc-linux-gnu"

%struct.H5F_t = type { ptr, ptr, ptr, ptr, i32, ptr, i8, i8, ptr, i32 }
%struct.H5F_shared_t = type { ptr, ptr, ptr, i8, i32, i32, %struct.H5F_mtab_t, ptr, i8, i8, i64, i32, i32, i64, i64, ptr, ptr, %struct.H5AC_cache_config_t, %struct.H5AC_cache_image_config_t, i8, i8, ptr, i64, i32, i8, i64, i64, double, i64, i64, i64, i32, i32, i32, i8, i32, ptr, ptr, ptr, ptr, i8, i8, i8, i64, ptr, ptr, i32, i64, i8, i32, i8, i64, i8, [13 x i32], [13 x i64], [13 x ptr], i8, i64, i64, [7 x i32], [7 x i32], %struct.H5F_blk_aggr_t, %struct.H5F_blk_aggr_t, i64, i64, %struct.H5F_meta_accum_t, i32, i32, [30 x ptr], %struct.H5F_object_flush_t, i8, ptr }
%struct.H5F_mtab_t = type { i32, i32, ptr }
%struct.H5AC_cache_config_t = type { i32, i8, i8, i8, [1025 x i8], i8, i8, i64, double, i64, i64, i64, i32, double, double, i8, i64, i32, double, double, i32, double, double, i8, i64, i32, i8, double, i64, i32 }
%struct.H5AC_cache_image_config_t = type { i32, i8, i8, i32 }
%struct.H5F_blk_aggr_t = type { i64, i64, i64, i64, i64 }
%struct.H5F_meta_accum_t = type { ptr, i64, i64, i64, i64, i64, i8 }
%struct.H5F_object_flush_t = type { ptr, ptr }
%struct.H5FO_open_obj_t = type { i64, ptr, i8 }

@.str = private unnamed_addr constant [98 x i8] c"generated/home/dtcxzyw/WorkSpace/Projects/compilers/llvm-opt-benchmark/bench/hdf5/hdf5/src/H5FO.c\00", align 1
@__func__.H5FO_insert = private unnamed_addr constant [12 x i8] c"H5FO_insert\00", align 1
@H5E_CACHE_g = external global i64, align 8
@H5E_NOSPACE_g = external global i64, align 8
@.str.2 = private unnamed_addr constant [25 x i8] c"memory allocation failed\00", align 1
@H5E_CANTINSERT_g = external global i64, align 8
@.str.3 = private unnamed_addr constant [35 x i8] c"can't insert object into container\00", align 1
@H5_H5FO_open_obj_t_reg_free_list = internal global { i8, [3 x i8], i32, i32, [4 x i8], ptr, i64, ptr } { i8 0, [3 x i8] zeroinitializer, i32 0, i32 0, [4 x i8] zeroinitializer, ptr @.str.9, i64 24, ptr null }, align 8

; Function Attrs: nounwind uwtable
define i32 @H5FO_insert(ptr noundef %0, i64 noundef %1, ptr noundef %2, i1 noundef zeroext %3) #0 {
  %5 = alloca ptr, align 8
  %6 = alloca i64, align 8
  %7 = alloca ptr, align 8
  %8 = alloca i8, align 1
  %9 = alloca ptr, align 8
  %10 = alloca i32, align 4
  %11 = alloca i8, align 1
  store ptr %0, ptr %5, align 8, !tbaa !3
  store i64 %1, ptr %6, align 8, !tbaa !39
  store ptr %2, ptr %7, align 8, !tbaa !46
  %12 = zext i1 %3 to i8
  store i8 %12, ptr %8, align 1, !tbaa !10
  call void @llvm.lifetime.start.p0(i64 8, ptr %9) #3
  call void @llvm.lifetime.start.p0(i64 4, ptr %10) #3
  store i32 0, ptr %10, align 4, !tbaa !8
  call void @llvm.lifetime.start.p0(i64 1, ptr %11) #3
  store i8 0, ptr %11, align 1, !tbaa !10
  %13 = call noalias ptr @H5FL_reg_malloc(ptr noundef @H5_H5FO_open_obj_t_reg_free_list)
  store ptr %13, ptr %9, align 8, !tbaa !42
  %14 = icmp eq ptr %13, null
  br i1 %14, label %15, label %34

15:                                               ; preds = %4
  br label %16

16:                                               ; preds = %15
  br label %17

17:                                               ; preds = %16
  br label %18

18:                                               ; preds = %17
  %19 = load i64, ptr @H5E_CACHE_g, align 8, !tbaa !39
  %20 = load i64, ptr @H5E_NOSPACE_g, align 8, !tbaa !39
  %21 = call i32 (ptr, ptr, i32, i64, i64, ptr, ...) @H5E_printf_stack(ptr noundef @.str, ptr noundef @__func__.H5FO_insert, i32 noundef 172, i64 noundef %19, i64 noundef %20, ptr noundef @.str.2)
  br label %22

22:                                               ; preds = %18
  br label %23

23:                                               ; preds = %22
  store i8 1, ptr %11, align 1, !tbaa !10
  %24 = load i8, ptr %11, align 1, !tbaa !10, !range !40, !noundef !41
  %25 = trunc i8 %24 to i1
  %26 = zext i1 %25 to i8
  store i8 %26, ptr %11, align 1, !tbaa !10
  br label %27

27:                                               ; preds = %23
  br label %28

28:                                               ; preds = %27
  br label %29

29:                                               ; preds = %28
  store i32 -1, ptr %10, align 4, !tbaa !8
  br label %76

30:                                               ; No predecessors!
  br label %31

31:                                               ; preds = %30
  br label %32

32:                                               ; preds = %31
  br label %33

33:                                               ; preds = %32
  br label %34

34:                                               ; preds = %33, %4
  %35 = load i64, ptr %6, align 8, !tbaa !39
  %36 = load ptr, ptr %9, align 8, !tbaa !42
  %37 = getelementptr inbounds nuw %struct.H5FO_open_obj_t, ptr %36, i32 0, i32 0
  store i64 %35, ptr %37, align 8, !tbaa !47
  %38 = load ptr, ptr %7, align 8, !tbaa !46
  %39 = load ptr, ptr %9, align 8, !tbaa !42
  %40 = getelementptr inbounds nuw %struct.H5FO_open_obj_t, ptr %39, i32 0, i32 1
  store ptr %38, ptr %40, align 8, !tbaa !44
  %41 = load i8, ptr %8, align 1, !tbaa !10, !range !40, !noundef !41
  %42 = trunc i8 %41 to i1
  %43 = load ptr, ptr %9, align 8, !tbaa !42
  %44 = getelementptr inbounds nuw %struct.H5FO_open_obj_t, ptr %43, i32 0, i32 2
  %45 = zext i1 %42 to i8
  store i8 %45, ptr %44, align 8, !tbaa !48
  %46 = load ptr, ptr %5, align 8, !tbaa !3
  %47 = getelementptr inbounds nuw %struct.H5F_t, ptr %46, i32 0, i32 2
  %48 = load ptr, ptr %47, align 8, !tbaa !12
  %49 = getelementptr inbounds nuw %struct.H5F_shared_t, ptr %48, i32 0, i32 38
  %50 = load ptr, ptr %49, align 8, !tbaa !18
  %51 = load ptr, ptr %9, align 8, !tbaa !42
  %52 = getelementptr inbounds nuw %struct.H5FO_open_obj_t, ptr %51, i32 0, i32 0
  %53 = load ptr, ptr %9, align 8, !tbaa !42
  %54 = call i32 @H5SL_insert(ptr noundef %50, ptr noundef %52, ptr noundef %53)
  %55 = icmp slt i32 %54, 0
  br i1 %55, label %56, label %75

56:                                               ; preds = %34
  br label %57

57:                                               ; preds = %56
  br label %58

58:                                               ; preds = %57
  br label %59

59:                                               ; preds = %58
  %60 = load i64, ptr @H5E_CACHE_g, align 8, !tbaa !39
  %61 = load i64, ptr @H5E_CANTINSERT_g, align 8, !tbaa !39
  %62 = call i32 (ptr, ptr, i32, i64, i64, ptr, ...) @H5E_printf_stack(ptr noundef @.str, ptr noundef @__func__.H5FO_insert, i32 noundef 181, i64 noundef %60, i64 noundef %61, ptr noundef @.str.3)
  br label %63

63:                                               ; preds = %59
  br label %64

64:                                               ; preds = %63
  store i8 1, ptr %11, align 1, !tbaa !10
  %65 = load i8, ptr %11, align 1, !tbaa !10, !range !40, !noundef !41
  %66 = trunc i8 %65 to i1
  %67 = zext i1 %66 to i8
  store i8 %67, ptr %11, align 1, !tbaa !10
  br label %68

68:                                               ; preds = %64
  br label %69

69:                                               ; preds = %68
  br label %70

70:                                               ; preds = %69
  store i32 -1, ptr %10, align 4, !tbaa !8
  br label %76

71:                                               ; No predecessors!
  br label %72

72:                                               ; preds = %71
  br label %73

73:                                               ; preds = %72
  br label %74

74:                                               ; preds = %73
  br label %75

75:                                               ; preds = %74, %34
  br label %76

76:                                               ; preds = %75, %70, %29
  %77 = load i32, ptr %10, align 4, !tbaa !8
  call void @llvm.lifetime.end.p0(i64 1, ptr %11) #3
  call void @llvm.lifetime.end.p0(i64 4, ptr %10) #3
  call void @llvm.lifetime.end.p0(i64 8, ptr %9) #3
  ret i32 %77
}