; Function Attrs: nounwind uwtable
define range(i32 -1, 1) i32 @H5FO_insert(ptr noundef readonly captures(none) %0, i64 noundef %1, ptr noundef %2, i1 noundef zeroext %3) local_unnamed_addr #0 {
  %5 = tail call noalias ptr @H5FL_reg_malloc(ptr noundef nonnull @H5_H5FO_open_obj_t_reg_free_list) #2
  %6 = icmp eq ptr %5, null
  br i1 %6, label %7, label %11

7:                                                ; preds = %4
  %8 = load i64, ptr @H5E_CACHE_g, align 8, !tbaa !36
  %9 = load i64, ptr @H5E_NOSPACE_g, align 8, !tbaa !36
  %10 = tail call i32 (ptr, ptr, i32, i64, i64, ptr, ...) @H5E_printf_stack(ptr noundef nonnull @.str, ptr noundef nonnull @__func__.H5FO_insert, i32 noundef 172, i64 noundef %8, i64 noundef %9, ptr noundef nonnull @.str.2) #2
  br label %25

11:                                               ; preds = %4
  %12 = zext i1 %3 to i8
  store i64 %1, ptr %5, align 8, !tbaa !39
  %13 = getelementptr inbounds nuw i8, ptr %5, i64 8
  store ptr %2, ptr %13, align 8, !tbaa !37
  %14 = getelementptr inbounds nuw i8, ptr %5, i64 16
  store i8 %12, ptr %14, align 8, !tbaa !40
  %15 = getelementptr inbounds nuw i8, ptr %0, i64 16
  %16 = load ptr, ptr %15, align 8, !tbaa !3
  %17 = getelementptr inbounds nuw i8, ptr %16, i64 1464
  %18 = load ptr, ptr %17, align 8, !tbaa !15
  %19 = tail call i32 @H5SL_insert(ptr noundef %18, ptr noundef nonnull %5, ptr noundef nonnull %5) #2
  %20 = icmp slt i32 %19, 0
  br i1 %20, label %21, label %25

21:                                               ; preds = %11
  %22 = load i64, ptr @H5E_CACHE_g, align 8, !tbaa !36
  %23 = load i64, ptr @H5E_CANTINSERT_g, align 8, !tbaa !36
  %24 = tail call i32 (ptr, ptr, i32, i64, i64, ptr, ...) @H5E_printf_stack(ptr noundef nonnull @.str, ptr noundef nonnull @__func__.H5FO_insert, i32 noundef 181, i64 noundef %22, i64 noundef %23, ptr noundef nonnull @.str.3) #2
  br label %25

25:                                               ; preds = %11, %21, %7
  %.0 = phi i32 [ -1, %7 ], [ -1, %21 ], [ 0, %11 ]
  ret i32 %.0
}